target datalayout = "e-m:e-p270:32:32-p271:32:32-p272:64:64-i64:64-i128:128-f80:128-n8:16:32:64-S128"
target triple = "x86_64-pc-linux-gnu"

%union.PJ_COORD = type { [4 x double] }
%struct.PJ_LP = type { double, double }
%struct.PJconsts = type { ptr, ptr, ptr, ptr, ptr, ptr, ptr, ptr, ptr, ptr, ptr, ptr, i32, ptr, ptr, ptr, ptr, ptr, ptr, ptr, ptr, double, double, double, double, double, double, double, double, double, double, double, double, double, double, double, double, double, double, double, double, double, double, i32, i32, i32, i32, i32, i32, i32, i32, i32, i32, i32, ptr, ptr, ptr, ptr, ptr, ptr, double, double, double, double, double, double, double, double, double, double, double, i32, [7 x double], i32, ptr, ptr, double, double, i32, [4 x i8], %"class.std::shared_ptr", i8, double, i8, %"class.std::__cxx11::basic_string", %"class.std::__cxx11::basic_string", %"class.std::__cxx11::basic_string", i8, %"class.std::vector", i32, %"class.std::vector.3", i32, i8, i8, i8, ptr }
%"class.std::shared_ptr" = type { %"class.std::__shared_ptr" }
%"class.std::__shared_ptr" = type { ptr, %"class.std::__shared_count" }
%"class.std::__shared_count" = type { ptr }
%"class.std::__cxx11::basic_string" = type { %"struct.std::__cxx11::basic_string<char>::_Alloc_hider", i64, %union.anon }
%"struct.std::__cxx11::basic_string<char>::_Alloc_hider" = type { ptr }
%union.anon = type { i64, [8 x i8] }
%"class.std::vector" = type { %"struct.std::_Vector_base" }
%"struct.std::_Vector_base" = type { %"struct.std::_Vector_base<osgeo::proj::operation::GridDescription, std::allocator<osgeo::proj::operation::GridDescription>>::_Vector_impl" }
%"struct.std::_Vector_base<osgeo::proj::operation::GridDescription, std::allocator<osgeo::proj::operation::GridDescription>>::_Vector_impl" = type { %"struct.std::_Vector_base<osgeo::proj::operation::GridDescription, std::allocator<osgeo::proj::operation::GridDescription>>::_Vector_impl_data" }
%"struct.std::_Vector_base<osgeo::proj::operation::GridDescription, std::allocator<osgeo::proj::operation::GridDescription>>::_Vector_impl_data" = type { ptr, ptr, ptr }
%"class.std::vector.3" = type { %"struct.std::_Vector_base.4" }
%"struct.std::_Vector_base.4" = type { %"struct.std::_Vector_base<PJCoordOperation, std::allocator<PJCoordOperation>>::_Vector_impl" }
%"struct.std::_Vector_base<PJCoordOperation, std::allocator<PJCoordOperation>>::_Vector_impl" = type { %"struct.std::_Vector_base<PJCoordOperation, std::allocator<PJCoordOperation>>::_Vector_impl_data" }
%"struct.std::_Vector_base<PJCoordOperation, std::allocator<PJCoordOperation>>::_Vector_impl_data" = type { ptr, ptr, ptr }

; Function Attrs: mustprogress nounwind uwtable
define hidden void @_Z22pj_geocentric_latitudePK8PJconsts12PJ_DIRECTION8PJ_COORD(ptr dead_on_unwind noalias writable sret(%union.PJ_COORD) align 8 %0, ptr noundef %1, i32 noundef %2, ptr noundef byval(%union.PJ_COORD) align 8 %3) #0 {
  %5 = alloca ptr, align 8
  %6 = alloca i32, align 4
  %7 = alloca double, align 8
  %8 = alloca i32, align 4
  store ptr %1, ptr %5, align 8, !tbaa !3
  store i32 %2, ptr %6, align 4, !tbaa !8
  call void @llvm.lifetime.start.p0(i64 8, ptr %7) #6
  store double 0x3FF921FB53FF74E8, ptr %7, align 8, !tbaa !10
  call void @llvm.memcpy.p0.p0.i64(ptr align 8 %0, ptr align 8 %3, i64 32, i1 false), !tbaa.struct !12
  %9 = getelementptr inbounds nuw %struct.PJ_LP, ptr %3, i32 0, i32 1
  %10 = load double, ptr %9, align 8, !tbaa !13
  %11 = fcmp ogt double %10, 0x3FF921FB53FF74E8
  br i1 %11, label %21, label %12

12:                                               ; preds = %4
  %13 = getelementptr inbounds nuw %struct.PJ_LP, ptr %3, i32 0, i32 1
  %14 = load double, ptr %13, align 8, !tbaa !13
  %15 = fcmp olt double %14, 0xBFF921FB53FF74E8
  br i1 %15, label %21, label %16

16:                                               ; preds = %12
  %17 = load ptr, ptr %5, align 8, !tbaa !3
  %18 = getelementptr inbounds nuw %struct.PJconsts, ptr %17, i32 0, i32 27
  %19 = load double, ptr %18, align 8, !tbaa !14
  %20 = fcmp oeq double %19, 0.000000e+00
  br i1 %20, label %21, label %22

21:                                               ; preds = %16, %12, %4
  store i32 1, ptr %8, align 4
  br label %46

22:                                               ; preds = %16
  %23 = load i32, ptr %6, align 4, !tbaa !8
  %24 = icmp eq i32 %23, 1
  br i1 %24, label %25, label %35

25:                                               ; preds = %22
  %26 = load ptr, ptr %5, align 8, !tbaa !3
  %27 = getelementptr inbounds nuw %struct.PJconsts, ptr %26, i32 0, i32 32
  %28 = load double, ptr %27, align 8, !tbaa !42
  %29 = getelementptr inbounds nuw %struct.PJ_LP, ptr %3, i32 0, i32 1
  %30 = load double, ptr %29, align 8, !tbaa !13
  %31 = call double @tan(double noundef %30) #6, !tbaa !43
  %32 = fmul double %28, %31
  %33 = call double @atan(double noundef %32) #6, !tbaa !43
  %34 = getelementptr inbounds nuw %struct.PJ_LP, ptr %0, i32 0, i32 1
  store double %33, ptr %34, align 8, !tbaa !13
  br label %45

35:                                               ; preds = %22
  %36 = load ptr, ptr %5, align 8, !tbaa !3
  %37 = getelementptr inbounds nuw %struct.PJconsts, ptr %36, i32 0, i32 33
  %38 = load double, ptr %37, align 8, !tbaa !44
  %39 = getelementptr inbounds nuw %struct.PJ_LP, ptr %3, i32 0, i32 1
  %40 = load double, ptr %39, align 8, !tbaa !13
  %41 = call double @tan(double noundef %40) #6, !tbaa !43
  %42 = fmul double %38, %41
  %43 = call double @atan(double noundef %42) #6, !tbaa !43
  %44 = getelementptr inbounds nuw %struct.PJ_LP, ptr %0, i32 0, i32 1
  store double %43, ptr %44, align 8, !tbaa !13
  br label %45

45:                                               ; preds = %35, %25
  store i32 1, ptr %8, align 4
  br label %46

46:                                               ; preds = %45, %21
  call void @llvm.lifetime.end.p0(i64 8, ptr %7) #6
  ret void
}

; Function Attrs: mustprogress nounwind uwtable
define internal void @_ZL7inverseR8PJ_COORDP8PJconsts(ptr noundef nonnull align 8 dereferenceable(32) %0, ptr noundef %1) #0 {
  %3 = alloca ptr, align 8
  %4 = alloca ptr, align 8
  %5 = alloca %union.PJ_COORD, align 8
  %6 = alloca %union.PJ_COORD, align 8
  store ptr %0, ptr %3, align 8, !tbaa !53
  store ptr %1, ptr %4, align 8, !tbaa !3
  call void @llvm.lifetime.start.p0(i64 32, ptr %5) #6
  %7 = load ptr, ptr %4, align 8, !tbaa !3
  %8 = load ptr, ptr %3, align 8, !tbaa !53
  call void @llvm.memcpy.p0.p0.i64(ptr align 8 %6, ptr align 8 %8, i64 32, i1 false), !tbaa.struct !12
  call void @_Z22pj_geocentric_latitudePK8PJconsts12PJ_DIRECTION8PJ_COORD(ptr dead_on_unwind writable sret(%union.PJ_COORD) align 8 %5, ptr noundef %7, i32 noundef -1, ptr noundef byval(%union.PJ_COORD) align 8 %6)
  %9 = load ptr, ptr %3, align 8, !tbaa !53
  call void @llvm.memcpy.p0.p0.i64(ptr align 8 %9, ptr align 8 %5, i64 32, i1 false), !tbaa.struct !12
  call void @llvm.lifetime.end.p0(i64 32, ptr %5) #6
  ret void
}